target datalayout = "e-m:e-p270:32:32-p271:32:32-p272:64:64-i64:64-i128:128-f80:128-n8:16:32:64-S128"
target triple = "x86_64-pc-linux-gnu"

%"class.cv::_InputArray" = type { i32, ptr, %"class.cv::Size_" }
%"class.cv::Size_" = type { i32, i32 }
%"class.cv::Mat" = type { i32, i32, i32, i32, ptr, ptr, ptr, ptr, ptr, ptr, %"struct.cv::MatSize", %"struct.cv::MatStep" }
%"struct.cv::MatSize" = type { ptr }
%"struct.cv::MatStep" = type { ptr, [2 x i64] }
%"class.cv::UMat" = type { i32, i32, i32, i32, ptr, i32, ptr, i64, %"struct.cv::MatSize", %"struct.cv::MatStep" }

; Function Attrs: inlinehint mustprogress nounwind uwtable
define linkonce_odr hidden void @_ZN2cv5Size_IiEC2Eii(ptr noundef nonnull align 4 dereferenceable(8) %0, i32 noundef %1, i32 noundef %2) unnamed_addr #2 comdat align 2 {
  %4 = alloca ptr, align 8
  %5 = alloca i32, align 4
  %6 = alloca i32, align 4
  store ptr %0, ptr %4, align 8, !tbaa !109
  store i32 %1, ptr %5, align 4, !tbaa !8
  store i32 %2, ptr %6, align 4, !tbaa !8
  %7 = load ptr, ptr %4, align 8
  %8 = getelementptr inbounds nuw %"class.cv::Size_", ptr %7, i32 0, i32 0
  %9 = load i32, ptr %5, align 4, !tbaa !8
  store i32 %9, ptr %8, align 4, !tbaa !85
  %10 = getelementptr inbounds nuw %"class.cv::Size_", ptr %7, i32 0, i32 1
  %11 = load i32, ptr %6, align 4, !tbaa !8
  store i32 %11, ptr %10, align 4, !tbaa !104
  ret void
}

; Function Attrs: inlinehint mustprogress nounwind uwtable
define internal noundef i32 @_ZN2cvanERKiRKNS_11_InputArray8KindFlagE(ptr noundef nonnull align 4 dereferenceable(4) %0, ptr noundef nonnull align 4 dereferenceable(4) %1) #2 {
  %3 = alloca ptr, align 8
  %4 = alloca ptr, align 8
  store ptr %0, ptr %3, align 8, !tbaa !49
  store ptr %1, ptr %4, align 8, !tbaa !50
  %5 = load ptr, ptr %3, align 8, !tbaa !49
  %6 = load i32, ptr %5, align 4, !tbaa !8
  %7 = load ptr, ptr %4, align 8, !tbaa !50
  %8 = load i32, ptr %7, align 4, !tbaa !10
  %9 = and i32 %6, %8
  ret i32 %9
}

; Function Attrs: inlinehint mustprogress nounwind uwtable
define internal noundef zeroext i1 @_ZN2cveqIiEEbRKNS_5Size_IT_EES5_(ptr noundef nonnull align 4 dereferenceable(8) %0, ptr noundef nonnull align 4 dereferenceable(8) %1) #2 {
  %3 = alloca ptr, align 8
  %4 = alloca ptr, align 8
  store ptr %0, ptr %3, align 8, !tbaa !109
  store ptr %1, ptr %4, align 8, !tbaa !109
  %5 = load ptr, ptr %3, align 8, !tbaa !109
  %6 = getelementptr inbounds nuw %"class.cv::Size_", ptr %5, i32 0, i32 0
  %7 = load i32, ptr %6, align 4, !tbaa !85
  %8 = load ptr, ptr %4, align 8, !tbaa !109
  %9 = getelementptr inbounds nuw %"class.cv::Size_", ptr %8, i32 0, i32 0
  %10 = load i32, ptr %9, align 4, !tbaa !85
  %11 = icmp eq i32 %7, %10
  br i1 %11, label %12, label %20

12:                                               ; preds = %2
  %13 = load ptr, ptr %3, align 8, !tbaa !109
  %14 = getelementptr inbounds nuw %"class.cv::Size_", ptr %13, i32 0, i32 1
  %15 = load i32, ptr %14, align 4, !tbaa !104
  %16 = load ptr, ptr %4, align 8, !tbaa !109
  %17 = getelementptr inbounds nuw %"class.cv::Size_", ptr %16, i32 0, i32 1
  %18 = load i32, ptr %17, align 4, !tbaa !104
  %19 = icmp eq i32 %15, %18
  br label %20

20:                                               ; preds = %12, %2
  %21 = phi i1 [ false, %2 ], [ %19, %12 ]
  ret i1 %21
}

; Function Attrs: inlinehint mustprogress uwtable
define linkonce_odr hidden i64 @_ZNK2cv7MatSizeclEv(ptr noundef nonnull align 8 dereferenceable(8) %0) #4 comdat align 2 {
  %2 = alloca %"class.cv::Size_", align 4
  %3 = alloca ptr, align 8
  store ptr %0, ptr %3, align 8, !tbaa !91
  %4 = load ptr, ptr %3, align 8
  %5 = getelementptr inbounds nuw %"struct.cv::MatSize", ptr %4, i32 0, i32 0
  %6 = load ptr, ptr %5, align 8, !tbaa !93
  %7 = getelementptr inbounds i32, ptr %6, i64 1
  %8 = load i32, ptr %7, align 4, !tbaa !8
  %9 = getelementptr inbounds nuw %"struct.cv::MatSize", ptr %4, i32 0, i32 0
  %10 = load ptr, ptr %9, align 8, !tbaa !93
  %11 = getelementptr inbounds i32, ptr %10, i64 0
  %12 = load i32, ptr %11, align 4, !tbaa !8
  call void @_ZN2cv5Size_IiEC2Eii(ptr noundef nonnull align 4 dereferenceable(8) %2, i32 noundef %8, i32 noundef %12)
  %13 = load i64, ptr %2, align 4
  ret i64 %13
}

; Function Attrs: inlinehint mustprogress nounwind uwtable
define linkonce_odr hidden void @_ZN2cv5Size_IiEC2Ev(ptr noundef nonnull align 4 dereferenceable(8) %0) unnamed_addr #2 comdat align 2 {
  %2 = alloca ptr, align 8
  store ptr %0, ptr %2, align 8, !tbaa !109
  %3 = load ptr, ptr %2, align 8
  %4 = getelementptr inbounds nuw %"class.cv::Size_", ptr %3, i32 0, i32 0
  store i32 0, ptr %4, align 4, !tbaa !85
  %5 = getelementptr inbounds nuw %"class.cv::Size_", ptr %3, i32 0, i32 1
  store i32 0, ptr %5, align 4, !tbaa !104
  ret void
}

; Function Attrs: mustprogress uwtable
define noundef i32 @_ZNK2cv11_InputArray4kindEv(ptr noundef nonnull align 8 dereferenceable(24) %0) #0 align 2 {
  %2 = alloca ptr, align 8
  %3 = alloca i32, align 4
  %4 = alloca i32, align 4
  store ptr %0, ptr %2, align 8, !tbaa !3
  %5 = load ptr, ptr %2, align 8
  call void @llvm.lifetime.start.p0(i64 4, ptr %3) #10
  %6 = getelementptr inbounds nuw %"class.cv::_InputArray", ptr %5, i32 0, i32 0
  call void @llvm.lifetime.start.p0(i64 4, ptr %4) #10
  store i32 2031616, ptr %4, align 4, !tbaa !10
  %7 = call noundef i32 @_ZN2cvanERKiRKNS_11_InputArray8KindFlagE(ptr noundef nonnull align 4 dereferenceable(4) %6, ptr noundef nonnull align 4 dereferenceable(4) %4)
  call void @llvm.lifetime.end.p0(i64 4, ptr %4) #10
  store i32 %7, ptr %3, align 4, !tbaa !10
  %8 = load i32, ptr %3, align 4, !tbaa !10
  call void @llvm.lifetime.end.p0(i64 4, ptr %3) #10
  ret i32 %8
}

; Function Attrs: mustprogress uwtable
define noundef zeroext i1 @_ZNK2cv11_InputArray8sameSizeERKS0_(ptr noundef nonnull align 8 dereferenceable(24) %0, ptr noundef nonnull align 8 dereferenceable(24) %1) #0 align 2 {
  %3 = alloca i1, align 1
  %4 = alloca ptr, align 8
  %5 = alloca ptr, align 8
  %6 = alloca i32, align 4
  %7 = alloca i32, align 4
  %8 = alloca %"class.cv::Size_", align 4
  %9 = alloca ptr, align 8
  %10 = alloca i32, align 4
  %11 = alloca %"class.cv::Size_", align 4
  %12 = alloca ptr, align 8
  %13 = alloca %"class.cv::Size_", align 4
  %14 = alloca %"class.cv::Size_", align 4
  %15 = alloca %"class.cv::Size_", align 4
  store ptr %0, ptr %4, align 8, !tbaa !3
  store ptr %1, ptr %5, align 8, !tbaa !3
  %16 = load ptr, ptr %4, align 8
  call void @llvm.lifetime.start.p0(i64 4, ptr %6) #10
  %17 = call noundef i32 @_ZNK2cv11_InputArray4kindEv(ptr noundef nonnull align 8 dereferenceable(24) %16)
  store i32 %17, ptr %6, align 4, !tbaa !10
  call void @llvm.lifetime.start.p0(i64 4, ptr %7) #10
  %18 = load ptr, ptr %5, align 8, !tbaa !3
  %19 = call noundef i32 @_ZNK2cv11_InputArray4kindEv(ptr noundef nonnull align 8 dereferenceable(24) %18)
  store i32 %19, ptr %7, align 4, !tbaa !10
  call void @llvm.lifetime.start.p0(i64 8, ptr %8) #10
  call void @_ZN2cv5Size_IiEC2Ev(ptr noundef nonnull align 4 dereferenceable(8) %8)
  %20 = load i32, ptr %6, align 4, !tbaa !10
  %21 = icmp eq i32 %20, 65536
  br i1 %21, label %22, label %59

22:                                               ; preds = %2
  call void @llvm.lifetime.start.p0(i64 8, ptr %9) #10
  %23 = getelementptr inbounds nuw %"class.cv::_InputArray", ptr %16, i32 0, i32 1
  %24 = load ptr, ptr %23, align 8, !tbaa !14
  store ptr %24, ptr %9, align 8, !tbaa !17
  %25 = load i32, ptr %7, align 4, !tbaa !10
  %26 = icmp eq i32 %25, 65536
  br i1 %26, label %27, label %35

27:                                               ; preds = %22
  %28 = load ptr, ptr %9, align 8, !tbaa !17
  %29 = getelementptr inbounds nuw %"class.cv::Mat", ptr %28, i32 0, i32 10
  %30 = load ptr, ptr %5, align 8, !tbaa !3
  %31 = getelementptr inbounds nuw %"class.cv::_InputArray", ptr %30, i32 0, i32 1
  %32 = load ptr, ptr %31, align 8, !tbaa !14
  %33 = getelementptr inbounds nuw %"class.cv::Mat", ptr %32, i32 0, i32 10
  %34 = call noundef zeroext i1 @_ZNK2cv7MatSizeeqERKS0_(ptr noundef nonnull align 8 dereferenceable(8) %29, ptr noundef nonnull align 8 dereferenceable(8) %33) #10
  store i1 %34, ptr %3, align 1
  store i32 1, ptr %10, align 4
  br label %56

35:                                               ; preds = %22
  %36 = load i32, ptr %7, align 4, !tbaa !10
  %37 = icmp eq i32 %36, 655360
  br i1 %37, label %38, label %46

38:                                               ; preds = %35
  %39 = load ptr, ptr %9, align 8, !tbaa !17
  %40 = getelementptr inbounds nuw %"class.cv::Mat", ptr %39, i32 0, i32 10
  %41 = load ptr, ptr %5, align 8, !tbaa !3
  %42 = getelementptr inbounds nuw %"class.cv::_InputArray", ptr %41, i32 0, i32 1
  %43 = load ptr, ptr %42, align 8, !tbaa !14
  %44 = getelementptr inbounds nuw %"class.cv::UMat", ptr %43, i32 0, i32 8
  %45 = call noundef zeroext i1 @_ZNK2cv7MatSizeeqERKS0_(ptr noundef nonnull align 8 dereferenceable(8) %40, ptr noundef nonnull align 8 dereferenceable(8) %44) #10
  store i1 %45, ptr %3, align 1
  store i32 1, ptr %10, align 4
  br label %56

46:                                               ; preds = %35
  %47 = load ptr, ptr %9, align 8, !tbaa !17
  %48 = getelementptr inbounds nuw %"class.cv::Mat", ptr %47, i32 0, i32 1
  %49 = load i32, ptr %48, align 4, !tbaa !80
  %50 = icmp sgt i32 %49, 2
  br i1 %50, label %51, label %52

51:                                               ; preds = %46
  store i1 false, ptr %3, align 1
  store i32 1, ptr %10, align 4
  br label %56

52:                                               ; preds = %46
  call void @llvm.lifetime.start.p0(i64 8, ptr %11) #10
  %53 = load ptr, ptr %9, align 8, !tbaa !17
  %54 = getelementptr inbounds nuw %"class.cv::Mat", ptr %53, i32 0, i32 10
  %55 = call i64 @_ZNK2cv7MatSizeclEv(ptr noundef nonnull align 8 dereferenceable(8) %54)
  store i64 %55, ptr %11, align 4
  call void @llvm.memcpy.p0.p0.i64(ptr align 4 %8, ptr align 4 %11, i64 8, i1 false), !tbaa.struct !21
  call void @llvm.lifetime.end.p0(i64 8, ptr %11) #10
  store i32 0, ptr %10, align 4
  br label %56

56:                                               ; preds = %52, %51, %38, %27
  call void @llvm.lifetime.end.p0(i64 8, ptr %9) #10
  %57 = load i32, ptr %10, align 4
  switch i32 %57, label %111 [
    i32 0, label %58
  ]

58:                                               ; preds = %56
  br label %102

59:                                               ; preds = %2
  %60 = load i32, ptr %6, align 4, !tbaa !10
  %61 = icmp eq i32 %60, 655360
  br i1 %61, label %62, label %99

62:                                               ; preds = %59
  call void @llvm.lifetime.start.p0(i64 8, ptr %12) #10
  %63 = getelementptr inbounds nuw %"class.cv::_InputArray", ptr %16, i32 0, i32 1
  %64 = load ptr, ptr %63, align 8, !tbaa !14
  store ptr %64, ptr %12, align 8, !tbaa !19
  %65 = load i32, ptr %7, align 4, !tbaa !10
  %66 = icmp eq i32 %65, 65536
  br i1 %66, label %67, label %75

67:                                               ; preds = %62
  %68 = load ptr, ptr %12, align 8, !tbaa !19
  %69 = getelementptr inbounds nuw %"class.cv::UMat", ptr %68, i32 0, i32 8
  %70 = load ptr, ptr %5, align 8, !tbaa !3
  %71 = getelementptr inbounds nuw %"class.cv::_InputArray", ptr %70, i32 0, i32 1
  %72 = load ptr, ptr %71, align 8, !tbaa !14
  %73 = getelementptr inbounds nuw %"class.cv::Mat", ptr %72, i32 0, i32 10
  %74 = call noundef zeroext i1 @_ZNK2cv7MatSizeeqERKS0_(ptr noundef nonnull align 8 dereferenceable(8) %69, ptr noundef nonnull align 8 dereferenceable(8) %73) #10
  store i1 %74, ptr %3, align 1
  store i32 1, ptr %10, align 4
  br label %96

75:                                               ; preds = %62
  %76 = load i32, ptr %7, align 4, !tbaa !10
  %77 = icmp eq i32 %76, 655360
  br i1 %77, label %78, label %86

78:                                               ; preds = %75
  %79 = load ptr, ptr %12, align 8, !tbaa !19
  %80 = getelementptr inbounds nuw %"class.cv::UMat", ptr %79, i32 0, i32 8
  %81 = load ptr, ptr %5, align 8, !tbaa !3
  %82 = getelementptr inbounds nuw %"class.cv::_InputArray", ptr %81, i32 0, i32 1
  %83 = load ptr, ptr %82, align 8, !tbaa !14
  %84 = getelementptr inbounds nuw %"class.cv::UMat", ptr %83, i32 0, i32 8
  %85 = call noundef zeroext i1 @_ZNK2cv7MatSizeeqERKS0_(ptr noundef nonnull align 8 dereferenceable(8) %80, ptr noundef nonnull align 8 dereferenceable(8) %84) #10
  store i1 %85, ptr %3, align 1
  store i32 1, ptr %10, align 4
  br label %96

86:                                               ; preds = %75
  %87 = load ptr, ptr %12, align 8, !tbaa !19
  %88 = getelementptr inbounds nuw %"class.cv::UMat", ptr %87, i32 0, i32 1
  %89 = load i32, ptr %88, align 4, !tbaa !130
  %90 = icmp sgt i32 %89, 2
  br i1 %90, label %91, label %92

91:                                               ; preds = %86
  store i1 false, ptr %3, align 1
  store i32 1, ptr %10, align 4
  br label %96

92:                                               ; preds = %86
  call void @llvm.lifetime.start.p0(i64 8, ptr %13) #10
  %93 = load ptr, ptr %12, align 8, !tbaa !19
  %94 = getelementptr inbounds nuw %"class.cv::UMat", ptr %93, i32 0, i32 8
  %95 = call i64 @_ZNK2cv7MatSizeclEv(ptr noundef nonnull align 8 dereferenceable(8) %94)
  store i64 %95, ptr %13, align 4
  call void @llvm.memcpy.p0.p0.i64(ptr align 4 %8, ptr align 4 %13, i64 8, i1 false), !tbaa.struct !21
  call void @llvm.lifetime.end.p0(i64 8, ptr %13) #10
  store i32 0, ptr %10, align 4
  br label %96

96:                                               ; preds = %92, %91, %78, %67
  call void @llvm.lifetime.end.p0(i64 8, ptr %12) #10
  %97 = load i32, ptr %10, align 4
  switch i32 %97, label %111 [
    i32 0, label %98
  ]

98:                                               ; preds = %96
  br label %101

99:                                               ; preds = %59
  call void @llvm.lifetime.start.p0(i64 8, ptr %14) #10
  %100 = call i64 @_ZNK2cv11_InputArray4sizeEi(ptr noundef nonnull align 8 dereferenceable(24) %16, i32 noundef -1)
  store i64 %100, ptr %14, align 4
  call void @llvm.memcpy.p0.p0.i64(ptr align 4 %8, ptr align 4 %14, i64 8, i1 false), !tbaa.struct !21
  call void @llvm.lifetime.end.p0(i64 8, ptr %14) #10
  br label %101

101:                                              ; preds = %99, %98
  br label %102

102:                                              ; preds = %101, %58
  %103 = load ptr, ptr %5, align 8, !tbaa !3
  %104 = call noundef i32 @_ZNK2cv11_InputArray4dimsEi(ptr noundef nonnull align 8 dereferenceable(24) %103, i32 noundef -1)
  %105 = icmp sgt i32 %104, 2
  br i1 %105, label %106, label %107

106:                                              ; preds = %102
  store i1 false, ptr %3, align 1
  store i32 1, ptr %10, align 4
  br label %111

107:                                              ; preds = %102
  call void @llvm.lifetime.start.p0(i64 8, ptr %15) #10
  %108 = load ptr, ptr %5, align 8, !tbaa !3
  %109 = call i64 @_ZNK2cv11_InputArray4sizeEi(ptr noundef nonnull align 8 dereferenceable(24) %108, i32 noundef -1)
  store i64 %109, ptr %15, align 4
  %110 = call noundef zeroext i1 @_ZN2cveqIiEEbRKNS_5Size_IT_EES5_(ptr noundef nonnull align 4 dereferenceable(8) %8, ptr noundef nonnull align 4 dereferenceable(8) %15)
  store i1 %110, ptr %3, align 1
  call void @llvm.lifetime.end.p0(i64 8, ptr %15) #10
  store i32 1, ptr %10, align 4
  br label %111

111:                                              ; preds = %107, %106, %96, %56
  call void @llvm.lifetime.end.p0(i64 8, ptr %8) #10
  call void @llvm.lifetime.end.p0(i64 4, ptr %7) #10
  call void @llvm.lifetime.end.p0(i64 4, ptr %6) #10
  %112 = load i1, ptr %3, align 1
  ret i1 %112
}