; Function Attrs: mustprogress uwtable
define noundef zeroext i1 @_ZNK2cv11_InputArray8sameSizeERKS0_(ptr noundef nonnull readonly align 8 captures(none) dereferenceable(24) %0, ptr noundef nonnull readonly align 8 captures(none) dereferenceable(24) %1) local_unnamed_addr #0 align 2 {
  %.val.i = load i32, ptr %0, align 8, !tbaa !3
  %3 = and i32 %.val.i, 2031616
  %.val.i35 = load i32, ptr %1, align 8, !tbaa !3
  %4 = and i32 %.val.i35, 2031616
  switch i32 %3, label %55 [
    i32 65536, label %5
    i32 655360, label %30
  ]

5:                                                ; preds = %2
  %6 = getelementptr inbounds nuw i8, ptr %0, i64 8
  %7 = load ptr, ptr %6, align 8, !tbaa !7
  switch i32 %4, label %20 [
    i32 65536, label %8
    i32 655360, label %14
  ]

8:                                                ; preds = %5
  %9 = getelementptr inbounds nuw i8, ptr %7, i64 64
  %10 = getelementptr inbounds nuw i8, ptr %1, i64 8
  %11 = load ptr, ptr %10, align 8, !tbaa !7
  %12 = getelementptr inbounds nuw i8, ptr %11, i64 64
  %13 = tail call noundef zeroext i1 @_ZNK2cv7MatSizeeqERKS0_(ptr noundef nonnull align 8 dereferenceable(8) %9, ptr noundef nonnull align 8 dereferenceable(8) %12) #17
  br label %.thread

14:                                               ; preds = %5
  %15 = getelementptr inbounds nuw i8, ptr %7, i64 64
  %16 = getelementptr inbounds nuw i8, ptr %1, i64 8
  %17 = load ptr, ptr %16, align 8, !tbaa !7
  %18 = getelementptr inbounds nuw i8, ptr %17, i64 48
  %19 = tail call noundef zeroext i1 @_ZNK2cv7MatSizeeqERKS0_(ptr noundef nonnull align 8 dereferenceable(8) %15, ptr noundef nonnull align 8 dereferenceable(8) %18) #17
  br label %.thread

20:                                               ; preds = %5
  %21 = getelementptr inbounds nuw i8, ptr %7, i64 4
  %22 = load i32, ptr %21, align 4, !tbaa !101
  %23 = icmp sgt i32 %22, 2
  br i1 %23, label %.thread, label %24

24:                                               ; preds = %20
  %25 = getelementptr inbounds nuw i8, ptr %7, i64 64
  %26 = load ptr, ptr %25, align 8, !tbaa !66
  %27 = getelementptr inbounds nuw i8, ptr %26, i64 4
  %28 = load i32, ptr %27, align 4, !tbaa !3
  %29 = load i32, ptr %26, align 4, !tbaa !3
  br label %57

30:                                               ; preds = %2
  %31 = getelementptr inbounds nuw i8, ptr %0, i64 8
  %32 = load ptr, ptr %31, align 8, !tbaa !7
  switch i32 %4, label %45 [
    i32 65536, label %33
    i32 655360, label %39
  ]

33:                                               ; preds = %30
  %34 = getelementptr inbounds nuw i8, ptr %32, i64 48
  %35 = getelementptr inbounds nuw i8, ptr %1, i64 8
  %36 = load ptr, ptr %35, align 8, !tbaa !7
  %37 = getelementptr inbounds nuw i8, ptr %36, i64 64
  %38 = tail call noundef zeroext i1 @_ZNK2cv7MatSizeeqERKS0_(ptr noundef nonnull align 8 dereferenceable(8) %34, ptr noundef nonnull align 8 dereferenceable(8) %37) #17
  br label %.thread

39:                                               ; preds = %30
  %40 = getelementptr inbounds nuw i8, ptr %32, i64 48
  %41 = getelementptr inbounds nuw i8, ptr %1, i64 8
  %42 = load ptr, ptr %41, align 8, !tbaa !7
  %43 = getelementptr inbounds nuw i8, ptr %42, i64 48
  %44 = tail call noundef zeroext i1 @_ZNK2cv7MatSizeeqERKS0_(ptr noundef nonnull align 8 dereferenceable(8) %40, ptr noundef nonnull align 8 dereferenceable(8) %43) #17
  br label %.thread

45:                                               ; preds = %30
  %46 = getelementptr inbounds nuw i8, ptr %32, i64 4
  %47 = load i32, ptr %46, align 4, !tbaa !122
  %48 = icmp sgt i32 %47, 2
  br i1 %48, label %.thread, label %49

49:                                               ; preds = %45
  %50 = getelementptr inbounds nuw i8, ptr %32, i64 48
  %51 = load ptr, ptr %50, align 8, !tbaa !66
  %52 = getelementptr inbounds nuw i8, ptr %51, i64 4
  %53 = load i32, ptr %52, align 4, !tbaa !3
  %54 = load i32, ptr %51, align 4, !tbaa !3
  br label %57

55:                                               ; preds = %2
  %56 = tail call i64 @_ZNK2cv11_InputArray4sizeEi(ptr noundef nonnull align 8 dereferenceable(24) %0, i32 noundef -1)
  %.sroa.040.0.extract.trunc = trunc i64 %56 to i32
  %.sroa.7.0.extract.shift = lshr i64 %56, 32
  %.sroa.7.0.extract.trunc = trunc nuw i64 %.sroa.7.0.extract.shift to i32
  br label %57

57:                                               ; preds = %49, %24, %55
  %.sroa.040.1 = phi i32 [ %.sroa.040.0.extract.trunc, %55 ], [ %53, %49 ], [ %28, %24 ]
  %.sroa.7.1 = phi i32 [ %.sroa.7.0.extract.trunc, %55 ], [ %54, %49 ], [ %29, %24 ]
  %58 = tail call noundef i32 @_ZNK2cv11_InputArray4dimsEi(ptr noundef nonnull align 8 dereferenceable(24) %1, i32 noundef -1)
  %59 = icmp sgt i32 %58, 2
  br i1 %59, label %.thread, label %60

60:                                               ; preds = %57
  %61 = tail call i64 @_ZNK2cv11_InputArray4sizeEi(ptr noundef nonnull align 8 dereferenceable(24) %1, i32 noundef -1)
  %.sroa.0.0.extract.trunc = trunc i64 %61 to i32
  %.sroa.4.0.extract.shift = lshr i64 %61, 32
  %.sroa.4.0.extract.trunc = trunc nuw i64 %.sroa.4.0.extract.shift to i32
  %62 = icmp eq i32 %.sroa.040.1, %.sroa.0.0.extract.trunc
  %63 = icmp eq i32 %.sroa.7.1, %.sroa.4.0.extract.trunc
  %64 = select i1 %62, i1 %63, i1 false
  br label %.thread

.thread:                                          ; preds = %45, %39, %33, %20, %14, %8, %57, %60
  %.1 = phi i1 [ %64, %60 ], [ false, %57 ], [ false, %20 ], [ %19, %14 ], [ %13, %8 ], [ false, %45 ], [ %44, %39 ], [ %38, %33 ]
  ret i1 %.1
}